target datalayout = "e-m:e-p270:32:32-p271:32:32-p272:64:64-i64:64-i128:128-f80:128-n8:16:32:64-S128"
target triple = "x86_64-pc-linux-gnu"

%struct.asn1_string_st = type { i32, i32, ptr, i64 }

@.str = private unnamed_addr constant [68 x i8] c"../openssl/providers/implementations/encode_decode/encode_key2any.c\00", align 1
@__func__.prepare_dh_params = private unnamed_addr constant [18 x i8] c"prepare_dh_params\00", align 1

; Function Attrs: nounwind uwtable
define internal i32 @prepare_dh_params(ptr noundef %0, i32 noundef %1, i32 noundef %2, ptr noundef %3, ptr noundef %4) #0 {
  %6 = alloca i32, align 4
  %7 = alloca ptr, align 8
  %8 = alloca i32, align 4
  %9 = alloca i32, align 4
  %10 = alloca ptr, align 8
  %11 = alloca ptr, align 8
  %12 = alloca ptr, align 8
  %13 = alloca i32, align 4
  store ptr %0, ptr %7, align 8, !tbaa !3
  store i32 %1, ptr %8, align 4, !tbaa !25
  store i32 %2, ptr %9, align 4, !tbaa !25
  store ptr %3, ptr %10, align 8, !tbaa !3
  store ptr %4, ptr %11, align 8, !tbaa !33
  call void @llvm.lifetime.start.p0(i64 8, ptr %12) #4
  %14 = call ptr @ASN1_STRING_new()
  store ptr %14, ptr %12, align 8, !tbaa !37
  %15 = load ptr, ptr %12, align 8, !tbaa !37
  %16 = icmp eq ptr %15, null
  br i1 %16, label %17, label %18

17:                                               ; preds = %5
  call void @ERR_new()
  call void @ERR_set_debug(ptr noundef @.str, i32 noundef 466, ptr noundef @__func__.prepare_dh_params)
  call void (i32, i32, ptr, ...) @ERR_set_error(i32 noundef 57, i32 noundef 524301, ptr noundef null)
  store i32 0, ptr %6, align 4
  store i32 1, ptr %13, align 4
  br label %48

18:                                               ; preds = %5
  %19 = load i32, ptr %8, align 4, !tbaa !25
  %20 = icmp eq i32 %19, 920
  br i1 %20, label %21, label %28

21:                                               ; preds = %18
  %22 = load ptr, ptr %7, align 8, !tbaa !3
  %23 = load ptr, ptr %12, align 8, !tbaa !37
  %24 = getelementptr inbounds nuw %struct.asn1_string_st, ptr %23, i32 0, i32 2
  %25 = call i32 @i2d_DHxparams(ptr noundef %22, ptr noundef %24)
  %26 = load ptr, ptr %12, align 8, !tbaa !37
  %27 = getelementptr inbounds nuw %struct.asn1_string_st, ptr %26, i32 0, i32 0
  store i32 %25, ptr %27, align 8, !tbaa !44
  br label %35

28:                                               ; preds = %18
  %29 = load ptr, ptr %7, align 8, !tbaa !3
  %30 = load ptr, ptr %12, align 8, !tbaa !37
  %31 = getelementptr inbounds nuw %struct.asn1_string_st, ptr %30, i32 0, i32 2
  %32 = call i32 @i2d_DHparams(ptr noundef %29, ptr noundef %31)
  %33 = load ptr, ptr %12, align 8, !tbaa !37
  %34 = getelementptr inbounds nuw %struct.asn1_string_st, ptr %33, i32 0, i32 0
  store i32 %32, ptr %34, align 8, !tbaa !44
  br label %35

35:                                               ; preds = %28, %21
  %36 = load ptr, ptr %12, align 8, !tbaa !37
  %37 = getelementptr inbounds nuw %struct.asn1_string_st, ptr %36, i32 0, i32 0
  %38 = load i32, ptr %37, align 8, !tbaa !44
  %39 = icmp sle i32 %38, 0
  br i1 %39, label %40, label %42

40:                                               ; preds = %35
  call void @ERR_new()
  call void @ERR_set_debug(ptr noundef @.str, i32 noundef 476, ptr noundef @__func__.prepare_dh_params)
  call void (i32, i32, ptr, ...) @ERR_set_error(i32 noundef 57, i32 noundef 524301, ptr noundef null)
  %41 = load ptr, ptr %12, align 8, !tbaa !37
  call void @ASN1_STRING_free(ptr noundef %41)
  store i32 0, ptr %6, align 4
  store i32 1, ptr %13, align 4
  br label %48

42:                                               ; preds = %35
  %43 = load ptr, ptr %12, align 8, !tbaa !37
  %44 = getelementptr inbounds nuw %struct.asn1_string_st, ptr %43, i32 0, i32 1
  store i32 16, ptr %44, align 4, !tbaa !56
  %45 = load ptr, ptr %12, align 8, !tbaa !37
  %46 = load ptr, ptr %10, align 8, !tbaa !3
  store ptr %45, ptr %46, align 8, !tbaa !3
  %47 = load ptr, ptr %11, align 8, !tbaa !33
  store i32 16, ptr %47, align 4, !tbaa !25
  store i32 1, ptr %6, align 4
  store i32 1, ptr %13, align 4
  br label %48

48:                                               ; preds = %42, %40, %17
  call void @llvm.lifetime.end.p0(i64 8, ptr %12) #4
  %49 = load i32, ptr %6, align 4
  ret i32 %49
}