; Function Attrs: nounwind uwtable
define internal range(i32 0, 2) i32 @prepare_dh_params(ptr noundef %0, i32 noundef %1, i32 %2, ptr noundef writeonly captures(none) %3, ptr noundef writeonly captures(none) %4) #0 {
  %6 = tail call ptr @ASN1_STRING_new() #5
  %7 = icmp eq ptr %6, null
  br i1 %7, label %8, label %9

8:                                                ; preds = %5
  tail call void @ERR_new() #5
  tail call void @ERR_set_debug(ptr noundef nonnull @.str, i32 noundef 466, ptr noundef nonnull @__func__.prepare_dh_params) #5
  tail call void (i32, i32, ptr, ...) @ERR_set_error(i32 noundef 57, i32 noundef 524301, ptr noundef null) #5
  br label %21

9:                                                ; preds = %5
  %10 = icmp eq i32 %1, 920
  %11 = getelementptr inbounds nuw i8, ptr %6, i64 8
  br i1 %10, label %12, label %14

12:                                               ; preds = %9
  %13 = tail call i32 @i2d_DHxparams(ptr noundef %0, ptr noundef nonnull %11) #5
  br label %16

14:                                               ; preds = %9
  %15 = tail call i32 @i2d_DHparams(ptr noundef %0, ptr noundef nonnull %11) #5
  br label %16

16:                                               ; preds = %14, %12
  %storemerge = phi i32 [ %15, %14 ], [ %13, %12 ]
  store i32 %storemerge, ptr %6, align 8, !tbaa !25
  %17 = icmp slt i32 %storemerge, 1
  br i1 %17, label %18, label %19

18:                                               ; preds = %16
  tail call void @ERR_new() #5
  tail call void @ERR_set_debug(ptr noundef nonnull @.str, i32 noundef 476, ptr noundef nonnull @__func__.prepare_dh_params) #5
  tail call void (i32, i32, ptr, ...) @ERR_set_error(i32 noundef 57, i32 noundef 524301, ptr noundef null) #5
  tail call void @ASN1_STRING_free(ptr noundef nonnull %6) #5
  br label %21

19:                                               ; preds = %16
  %20 = getelementptr inbounds nuw i8, ptr %6, i64 4
  store i32 16, ptr %20, align 4, !tbaa !27
  store ptr %6, ptr %3, align 8, !tbaa !21
  store i32 16, ptr %4, align 4, !tbaa !20
  br label %21

21:                                               ; preds = %19, %18, %8
  %.0 = phi i32 [ 0, %8 ], [ 0, %18 ], [ 1, %19 ]
  ret i32 %.0
}